Certificate:
    Data:
        Version: 3 (0x2)
        Serial Number: 7 (0x7)
        Signature Algorithm: sha1WithRSAEncryption
        Issuer: C=US, ST=New York, O=University of Rochester, OU=Computer Interest Floor, CN=CIF Root CA
        Validity
            Not Before: Sep 25 02:42:18 2007 GMT
            Not After : Sep 22 02:42:18 2017 GMT
        Subject: C=US, ST=New York, O=University of Rochester, OU=Computer Interest Floor, CN=CIF Root CA
        Subject Public Key Info:
            Public Key Algorithm: rsaEncryption
            RSA Public Key: (4096 bit)
                Modulus (4096 bit):
                    00:be:84:db:f3:f5:40:67:fd:ee:4b:53:8a:03:d9:
                    62:f3:2e:dd:46:4f:5b:72:59:47:06:75:4d:17:1d:
                    b8:7f:cf:68:d1:61:a7:0e:69:b2:63:44:e1:96:02:
                    43:7e:78:bf:38:09:5a:dd:ba:52:80:2d:5c:96:08:
                    cd:83:9f:34:d4:5c:9e:7f:a3:47:75:60:8d:9b:7a:
                    79:f3:e9:e6:7e:b5:9e:eb:63:6c:c8:13:b8:a8:9f:
                    91:32:55:b6:37:9c:89:4b:8a:4e:b3:e0:5c:94:e1:
                    e0:e9:f5:ad:dd:90:a9:3c:9a:a0:20:6f:ac:73:5f:
                    37:d1:83:a2:eb:b2:cd:e1:e2:6c:d7:b0:a6:f5:6a:
                    23:3f:96:ca:23:c4:c2:5a:18:1d:3f:fc:32:d9:40:
                    64:56:70:32:88:d3:db:07:90:26:ed:c7:94:2a:51:
                    88:1d:9c:a1:88:1a:6c:23:f8:91:45:2a:85:e8:c4:
                    20:b0:7f:d1:6a:62:6f:61:a1:25:9f:7c:09:a8:12:
                    ed:95:7b:24:50:d8:43:47:4a:5f:19:e2:b0:e5:5d:
                    16:46:3d:88:c9:e6:72:fc:0f:7e:90:5d:93:26:2d:
                    2b:4a:06:45:d6:ea:9e:3b:f0:e5:fa:eb:ed:f1:5c:
                    3d:b2:c0:e5:77:c7:9e:64:72:8e:dc:26:33:11:28:
                    e5:8b:35:e6:32:bb:cc:af:d6:68:18:43:b1:f4:ce:
                    2e:80:e9:6c:40:62:bd:3c:ae:37:55:7b:22:8a:56:
                    23:24:35:63:6c:b0:60:be:8c:22:0b:02:24:56:de:
                    aa:95:5d:3b:13:8f:62:f5:b1:64:5d:28:e5:d9:c5:
                    3f:ee:cb:7c:ee:48:8e:8d:9b:26:06:88:df:0f:9b:
                    3f:5f:8a:26:b5:74:a0:25:61:dc:83:33:ce:b2:30:
                    6e:88:01:e3:65:40:e0:93:75:bf:44:93:65:7e:0d:
                    53:aa:e0:5f:bc:91:5d:91:09:f9:c7:71:ef:b0:ce:
                    d5:14:c1:ce:a8:23:0d:c5:d2:f4:fa:1e:ff:56:66:
                    8d:21:4f:4b:c3:fd:6e:d5:91:8e:d0:23:1a:94:7f:
                    e5:0d:e1:3f:0a:d7:b7:ff:07:db:fc:4f:03:77:03:
                    56:d6:4c:09:83:ef:7e:c1:33:4b:ce:8c:fc:a2:59:
                    e8:8f:24:bf:b8:90:7d:ad:76:6e:2a:af:a6:4e:5a:
                    84:70:8b:89:74:23:0c:38:59:26:3b:03:6c:1e:6d:
                    77:16:8f:3d:41:e6:d5:94:e2:17:24:11:e2:13:b8:
                    59:9f:fb:ad:c6:cc:25:a9:f0:31:06:39:19:e4:fb:
                    ee:61:82:0e:ae:2a:92:5c:5d:50:7a:16:45:84:70:
                    3e:cf:a7
                Exponent: 65537 (0x10001)
        X509v3 extensions:
            X509v3 Subject Key Identifier: 
                BD:72:99:52:F5:64:CD:7D:8A:0E:A6:00:9F:5A:57:59:89:B5:2E:FB
            X509v3 Authority Key Identifier: 
                keyid:BD:72:99:52:F5:64:CD:7D:8A:0E:A6:00:9F:5A:57:59:89:B5:2E:FB
                DirName:/C=US/ST=New York/O=University of Rochester/OU=Computer Interest Floor/CN=CIF Root CA
                serial:07

            X509v3 Basic Constraints: 
                CA:TRUE
            X509v3 Key Usage: 
                Certificate Sign, CRL Sign
            Netscape Cert Type: 
                SSL CA, S/MIME CA
            X509v3 Subject Alternative Name: 
                <EMPTY>

            X509v3 Issuer Alternative Name: 
                <EMPTY>

    Signature Algorithm: sha1WithRSAEncryption
        2c:bd:24:f2:cd:ed:0d:77:b8:22:2d:d2:4d:9d:c6:23:96:e1:
        be:a8:c1:93:64:91:0a:83:33:44:21:0e:98:fd:3e:93:49:1e:
        88:a9:29:aa:23:71:7f:0f:0b:1d:86:ce:f6:c3:7c:b2:ba:23:
        8b:7b:a9:67:70:9e:02:4b:d6:e9:8c:0c:c0:8e:af:07:bf:dd:
        01:69:32:bb:16:83:3c:5d:fb:af:17:4c:9f:f0:c0:ff:03:73:
        64:90:a7:53:70:d1:bb:95:2d:2b:98:9b:ef:28:20:56:d4:fb:
        61:d7:21:56:23:63:4e:a5:c5:01:83:b0:83:63:dc:39:63:62:
        a3:1f:22:0e:9b:a2:90:5c:2d:6c:66:29:76:07:85:ea:72:2c:
        69:b2:1f:dc:54:c6:18:66:6e:ea:de:8e:b7:a0:9b:64:17:24:
        87:0a:a1:bc:d0:ac:5c:4c:7d:1e:27:13:df:be:87:12:ef:82:
        4f:d4:7b:a0:dd:8f:d3:06:cb:2f:ee:4d:a7:ea:86:e3:a3:a5:
        99:e9:a1:1e:fb:f4:42:d8:78:36:23:98:07:d6:e1:c2:0e:54:
        38:63:44:98:e8:61:14:28:48:bb:d2:d8:a5:f7:10:d0:f2:02:
        2f:13:6a:60:99:7e:48:bd:4e:c7:29:53:99:a7:03:19:d7:17:
        06:98:7a:2c:88:1b:85:cb:fb:9b:7b:e9:06:23:ec:c8:81:28:
        19:4d:dd:f5:b5:e9:a4:48:0a:43:e8:05:81:d8:65:19:80:d1:
        37:7a:23:09:f1:d1:28:12:a1:56:db:9e:42:f2:cb:1f:d7:24:
        07:7e:26:14:f7:c7:b5:81:2b:b4:16:e2:38:72:b3:38:21:d8:
        d2:af:8a:b4:b5:1e:5e:11:13:2b:72:fd:bc:3f:1e:c6:24:18:
        4b:17:38:46:0b:09:e2:92:38:d0:14:47:7c:92:dc:16:4a:2e:
        40:2f:aa:8b:04:f3:01:3c:7f:48:a7:06:51:c6:e3:84:7a:33:
        fa:0b:09:70:49:22:6f:37:c9:74:29:a6:19:36:ec:d2:65:64:
        6e:4b:4b:b3:08:ad:9e:1e:2f:8d:1a:01:b2:dc:2a:57:4d:78:
        6a:ed:34:f1:d8:c7:53:f1:42:b0:c1:48:a9:50:38:ef:16:6c:
        c5:30:e9:d9:be:c5:65:a0:64:c9:6f:bf:63:24:d7:a4:f5:8e:
        b5:50:8e:2b:ca:b8:c8:a1:be:6a:b2:f5:6a:f1:35:b3:2d:e7:
        30:9b:08:c8:e5:7f:89:bf:7f:f1:92:bc:65:92:ac:0a:4b:c5:
        27:70:d6:c1:bb:0e:5d:f6:2b:de:ac:15:ba:b0:89:36:7d:e5:
        d4:31:77:40:62:bf:55:49
-----BEGIN CERTIFICATE-----
MIIGfzCCBGegAwIBAgIBBzANBgkqhkiG9w0BAQUFADB6MQswCQYDVQQGEwJVUzER
MA8GA1UECBMITmV3IFlvcmsxIDAeBgNVBAoTF1VuaXZlcnNpdHkgb2YgUm9jaGVz
dGVyMSAwHgYDVQQLExdDb21wdXRlciBJbnRlcmVzdCBGbG9vcjEUMBIGA1UEAxML
Q0lGIFJvb3QgQ0EwHhcNMDcwOTI1MDI0MjE4WhcNMTcwOTIyMDI0MjE4WjB6MQsw
CQYDVQQGEwJVUzERMA8GA1UECBMITmV3IFlvcmsxIDAeBgNVBAoTF1VuaXZlcnNp
dHkgb2YgUm9jaGVzdGVyMSAwHgYDVQQLExdDb21wdXRlciBJbnRlcmVzdCBGbG9v
cjEUMBIGA1UEAxMLQ0lGIFJvb3QgQ0EwggIiMA0GCSqGSIb3DQEBAQUAA4ICDwAw
ggIKAoICAQC+hNvz9UBn/e5LU4oD2WLzLt1GT1tyWUcGdU0XHbh/z2jRYacOabJj
ROGWAkN+eL84CVrdulKALVyWCM2DnzTUXJ5/o0d1YI2bennz6eZ+tZ7rY2zIE7io
n5EyVbY3nIlLik6z4FyU4eDp9a3dkKk8mqAgb6xzXzfRg6Lrss3h4mzXsKb1aiM/
lsojxMJaGB0//DLZQGRWcDKI09sHkCbtx5QqUYgdnKGIGmwj+JFFKoXoxCCwf9Fq
Ym9hoSWffAmoEu2VeyRQ2ENHSl8Z4rDlXRZGPYjJ5nL8D36QXZMmLStKBkXW6p47
8OX66+3xXD2ywOV3x55kco7cJjMRKOWLNeYyu8yv1mgYQ7H0zi6A6WxAYr08rjdV
eyKKViMkNWNssGC+jCILAiRW3qqVXTsTj2L1sWRdKOXZxT/uy3zuSI6NmyYGiN8P
mz9fiia1dKAlYdyDM86yMG6IAeNlQOCTdb9Ek2V+DVOq4F+8kV2RCfnHce+wztUU
wc6oIw3F0vT6Hv9WZo0hT0vD/W7VkY7QIxqUf+UN4T8K17f/B9v8TwN3A1bWTAmD
737BM0vOjPyiWeiPJL+4kH2tdm4qr6ZOWoRwi4l0Iww4WSY7A2webXcWjz1B5tWU
4hckEeITuFmf+63GzCWp8DEGORnk++5hgg6uKpJcXVB6FkWEcD7PpwIDAQABo4IB
DjCCAQowHQYDVR0OBBYEFL1ymVL1ZM19ig6mAJ9aV1mJtS77MIGkBgNVHSMEgZww
gZmAFL1ymVL1ZM19ig6mAJ9aV1mJtS77oX6kfDB6MQswCQYDVQQGEwJVUzERMA8G
A1UECBMITmV3IFlvcmsxIDAeBgNVBAoTF1VuaXZlcnNpdHkgb2YgUm9jaGVzdGVy
MSAwHgYDVQQLExdDb21wdXRlciBJbnRlcmVzdCBGbG9vcjEUMBIGA1UEAxMLQ0lG
IFJvb3QgQ0GCAQcwDAYDVR0TBAUwAwEB/zALBgNVHQ8EBAMCAQYwEQYJYIZIAYb4
QgEBBAQDAgEGMAkGA1UdEQQCMAAwCQYDVR0SBAIwADANBgkqhkiG9w0BAQUFAAOC
AgEALL0k8s3tDXe4Ii3STZ3GI5bhvqjBk2SRCoMzRCEOmP0+k0keiKkpqiNxfw8L
HYbO9sN8sroji3upZ3CeAkvW6YwMwI6vB7/dAWkyuxaDPF37rxdMn/DA/wNzZJCn
U3DRu5UtK5ib7yggVtT7YdchViNjTqXFAYOwg2PcOWNiox8iDpuikFwtbGYpdgeF
6nIsabIf3FTGGGZu6t6Ot6CbZBckhwqhvNCsXEx9HicT376HEu+CT9R7oN2P0wbL
L+5Np+qG46OlmemhHvv0Qth4NiOYB9bhwg5UOGNEmOhhFChIu9LYpfcQ0PICLxNq
YJl+SL1OxylTmacDGdcXBph6LIgbhcv7m3vpBiPsyIEoGU3d9bXppEgKQ+gFgdhl
GYDRN3ojCfHRKBKhVtueQvLLH9ckB34mFPfHtYErtBbiOHKzOCHY0q+KtLUeXhET
K3L9vD8exiQYSxc4RgsJ4pI40BRHfJLcFkouQC+qiwTzATx/SKcGUcbjhHoz+gsJ
cEkibzfJdCmmGTbs0mVkbktLswitnh4vjRoBstwqV014au008djHU/FCsMFIqVA4
7xZsxTDp2b7FZaBkyW+/YyTXpPWOtVCOK8q4yKG+arL1avE1sy3nMJsIyOV/ib9/
8ZK8ZZKsCkvFJ3DWwbsOXfYr3qwVurCJNn3l1DF3QGK/VUk=
-----END CERTIFICATE-----
