Certificate:
    Data:
        Version: 3 (0x2)
        Serial Number: 0 (0x0)
        Signature Algorithm: sha1WithRSAEncryption
        Issuer: C=US, ST=New York, O=University of Rochester, OU=Computer Interest Floor, CN=CIF Root CA
        Validity
            Not Before: Sep 25 02:56:58 2007 GMT
            Not After : Sep 22 02:56:58 2017 GMT
        Subject: C=US, ST=New York, O=University of Rochester, OU=Computer Interest Floor, CN=CIF Server Sub-CA
        Subject Public Key Info:
            Public Key Algorithm: rsaEncryption
            RSA Public Key: (2048 bit)
                Modulus (2048 bit):
                    00:e8:c9:3e:f4:20:32:db:b3:18:a0:44:b2:15:7c:
                    a2:95:fd:96:0d:c2:11:57:af:d8:6f:ee:83:34:f7:
                    20:ff:36:ee:a9:0d:1c:39:29:41:8a:b1:32:30:72:
                    c3:68:15:91:dd:fd:fb:50:d1:37:38:58:ae:fa:bb:
                    f9:f6:8b:a8:e7:70:09:3d:33:cd:92:01:9b:bd:3a:
                    16:7f:4f:ed:db:35:98:c1:46:ab:63:29:ff:b3:59:
                    7d:14:a3:e4:3c:b2:1d:5b:14:21:d3:5f:f9:9e:10:
                    2e:83:02:ec:e5:27:82:75:d5:8c:36:1a:45:db:b4:
                    5a:98:70:5f:50:cb:da:6c:73:97:55:f2:d1:ec:29:
                    c3:4c:90:b7:99:07:cb:16:df:10:80:cd:79:a0:56:
                    21:01:ed:fa:f4:57:ad:2c:12:bf:83:92:06:6d:08:
                    11:99:5c:12:54:9c:24:88:26:86:25:96:a5:34:d0:
                    12:fe:86:ad:1a:59:cb:32:74:d4:2e:36:07:57:13:
                    b0:17:f5:81:ff:78:b4:34:e1:d1:1b:52:c4:f7:68:
                    ed:60:3b:01:45:b9:b5:14:08:d9:06:62:0c:10:8b:
                    b2:81:05:e0:3e:be:f0:a0:c4:4e:0b:9c:ea:4e:e7:
                    35:4f:00:3b:77:83:10:bf:7a:28:10:8e:b3:c0:6e:
                    a9:f9
                Exponent: 65537 (0x10001)
        X509v3 extensions:
            X509v3 Subject Key Identifier: 
                59:9F:88:CD:40:4D:91:D1:33:A2:E3:86:2E:D2:A7:0D:B8:C7:B0:D4
            X509v3 Authority Key Identifier: 
                keyid:BD:72:99:52:F5:64:CD:7D:8A:0E:A6:00:9F:5A:57:59:89:B5:2E:FB
                DirName:/C=US/ST=New York/O=University of Rochester/OU=Computer Interest Floor/CN=CIF Root CA
                serial:07

            X509v3 Basic Constraints: 
                CA:TRUE, pathlen:0
            X509v3 Key Usage: 
                Certificate Sign, CRL Sign
            Netscape Cert Type: 
                SSL CA, S/MIME CA
            X509v3 Subject Alternative Name: 
                <EMPTY>

            X509v3 Issuer Alternative Name: 
                <EMPTY>

    Signature Algorithm: sha1WithRSAEncryption
        1c:dc:b4:05:cd:15:c3:d0:72:d9:5e:47:4b:ab:b3:64:26:c6:
        a1:9b:e2:e2:3b:e0:be:f5:51:9e:a7:ed:0a:79:06:41:50:d1:
        e6:e9:49:1e:be:70:5d:38:56:12:6c:50:3f:13:5a:c4:af:e9:
        e5:a7:71:91:d2:77:ea:fa:40:21:52:84:e6:d4:fa:7c:1e:f4:
        97:88:68:f6:e0:93:7f:fc:fd:4e:3d:a4:d1:2d:ba:8f:a8:5d:
        20:85:e6:df:d0:d7:34:bc:05:da:d1:64:8b:61:43:08:12:4e:
        56:33:93:61:13:6c:ad:6e:01:4d:32:f7:0d:a1:6e:8a:62:57:
        ec:82:c3:4a:2d:4b:c0:ed:d9:23:45:5e:c4:00:b3:13:40:2e:
        9e:ec:ec:39:88:bf:3d:bf:f4:f6:91:54:7a:98:37:65:d0:58:
        22:d1:d7:29:47:12:19:a4:0c:23:dc:eb:dc:7e:e1:e9:cd:50:
        1f:8f:1d:c8:97:4b:6c:ab:2e:f2:3c:e0:b1:72:94:a0:86:ba:
        82:fe:6b:e9:37:6b:76:32:4a:6d:a7:9c:6c:ce:25:b8:41:d8:
        58:3d:d6:75:1c:fb:97:97:95:46:1b:3d:f9:e6:94:53:ad:7a:
        60:f8:fb:9c:92:28:b2:61:82:0a:8a:f0:be:5e:af:9c:13:44:
        82:f6:43:8a:79:0f:75:e6:fa:3e:d5:cc:c0:69:34:36:1d:0f:
        45:b6:ab:55:4b:56:63:59:7c:fc:59:a8:e4:1c:6c:0f:ab:8b:
        2d:2e:28:09:56:90:07:57:52:e4:0e:56:3a:6f:01:ca:e9:7b:
        87:b7:81:58:17:95:77:4d:7c:d3:0a:f5:f7:57:71:5e:26:cc:
        6d:c4:65:4f:82:d5:fc:e0:fe:14:54:38:1b:a6:8b:c5:59:f5:
        da:ad:98:41:42:4e:26:95:9d:2f:d5:12:24:21:34:bc:0b:e4:
        fc:2d:32:30:49:42:4d:56:d2:bf:59:98:cf:20:d1:28:bc:39:
        93:5d:ce:bb:70:38:4c:4e:28:7a:57:e4:f6:20:3f:6d:76:e1:
        11:50:6f:31:79:2d:ec:b5:04:57:f7:51:06:15:0e:42:9b:4e:
        0a:ee:f4:69:f6:3a:5a:f5:9a:39:8f:63:0f:9c:dd:d7:ef:d0:
        e4:f6:48:00:e8:7b:26:5c:54:60:19:dc:34:d0:9c:03:ae:c7:
        92:1e:d9:6f:0c:dd:05:37:79:e7:51:a3:fa:e6:b2:b2:d3:3c:
        10:67:60:80:26:f8:19:96:88:cb:0d:b1:90:28:21:92:84:22:
        c7:9b:ec:49:b0:e3:0a:ca:99:0b:5e:5f:79:dc:91:4a:e1:03:
        66:96:93:e4:d3:86:6e:95
-----BEGIN CERTIFICATE-----
MIIFiTCCA3GgAwIBAgIBADANBgkqhkiG9w0BAQUFADB6MQswCQYDVQQGEwJVUzER
MA8GA1UECBMITmV3IFlvcmsxIDAeBgNVBAoTF1VuaXZlcnNpdHkgb2YgUm9jaGVz
dGVyMSAwHgYDVQQLExdDb21wdXRlciBJbnRlcmVzdCBGbG9vcjEUMBIGA1UEAxML
Q0lGIFJvb3QgQ0EwHhcNMDcwOTI1MDI1NjU4WhcNMTcwOTIyMDI1NjU4WjCBgDEL
MAkGA1UEBhMCVVMxETAPBgNVBAgTCE5ldyBZb3JrMSAwHgYDVQQKExdVbml2ZXJz
aXR5IG9mIFJvY2hlc3RlcjEgMB4GA1UECxMXQ29tcHV0ZXIgSW50ZXJlc3QgRmxv
b3IxGjAYBgNVBAMTEUNJRiBTZXJ2ZXIgU3ViLUNBMIIBIjANBgkqhkiG9w0BAQEF
AAOCAQ8AMIIBCgKCAQEA6Mk+9CAy27MYoESyFXyilf2WDcIRV6/Yb+6DNPcg/zbu
qQ0cOSlBirEyMHLDaBWR3f37UNE3OFiu+rv59ouo53AJPTPNkgGbvToWf0/t2zWY
wUarYyn/s1l9FKPkPLIdWxQh01/5nhAugwLs5SeCddWMNhpF27RamHBfUMvabHOX
VfLR7CnDTJC3mQfLFt8QgM15oFYhAe369FetLBK/g5IGbQgRmVwSVJwkiCaGJZal
NNAS/oatGlnLMnTULjYHVxOwF/WB/3i0NOHRG1LE92jtYDsBRbm1FAjZBmIMEIuy
gQXgPr7woMROC5zqTuc1TwA7d4MQv3ooEI6zwG6p+QIDAQABo4IBETCCAQ0wHQYD
VR0OBBYEFFmfiM1ATZHRM6Ljhi7Spw24x7DUMIGkBgNVHSMEgZwwgZmAFL1ymVL1
ZM19ig6mAJ9aV1mJtS77oX6kfDB6MQswCQYDVQQGEwJVUzERMA8GA1UECBMITmV3
IFlvcmsxIDAeBgNVBAoTF1VuaXZlcnNpdHkgb2YgUm9jaGVzdGVyMSAwHgYDVQQL
ExdDb21wdXRlciBJbnRlcmVzdCBGbG9vcjEUMBIGA1UEAxMLQ0lGIFJvb3QgQ0GC
AQcwDwYDVR0TBAgwBgEB/wIBADALBgNVHQ8EBAMCAQYwEQYJYIZIAYb4QgEBBAQD
AgEGMAkGA1UdEQQCMAAwCQYDVR0SBAIwADANBgkqhkiG9w0BAQUFAAOCAgEAHNy0
Bc0Vw9By2V5HS6uzZCbGoZvi4jvgvvVRnqftCnkGQVDR5ulJHr5wXThWEmxQPxNa
xK/p5adxkdJ36vpAIVKE5tT6fB70l4ho9uCTf/z9Tj2k0S26j6hdIIXm39DXNLwF
2tFki2FDCBJOVjOTYRNsrW4BTTL3DaFuimJX7ILDSi1LwO3ZI0VexACzE0Aunuzs
OYi/Pb/09pFUepg3ZdBYItHXKUcSGaQMI9zr3H7h6c1QH48dyJdLbKsu8jzgsXKU
oIa6gv5r6TdrdjJKbaecbM4luEHYWD3WdRz7l5eVRhs9+eaUU616YPj7nJIosmGC
Corwvl6vnBNEgvZDinkPdeb6PtXMwGk0Nh0PRbarVUtWY1l8/Fmo5BxsD6uLLS4o
CVaQB1dS5A5WOm8Byul7h7eBWBeVd0180wr191dxXibMbcRlT4LV/OD+FFQ4G6aL
xVn12q2YQUJOJpWdL9USJCE0vAvk/C0yMElCTVbSv1mYzyDRKLw5k13Ou3A4TE4o
elfk9iA/bXbhEVBvMXkt7LUEV/dRBhUOQptOCu70afY6WvWaOY9jD5zd1+/Q5PZI
AOh7JlxUYBncNNCcA67Hkh7ZbwzdBTd551Gj+uaystM8EGdggCb4GZaIyw2xkCgh
koQix5vsSbDjCsqZC15fedyRSuEDZpaT5NOGbpU=
-----END CERTIFICATE-----
